; Function Attrs: mustprogress uwtable
define hidden void @_ZN21pattern_inference_cfg22filter_bigger_patternsERK10ptr_vectorI3appERS2_(ptr noundef nonnull align 8 dereferenceable(504) %this, ptr nocapture noundef nonnull readonly align 8 dereferenceable(8) %patterns, ptr noundef nonnull align 8 dereferenceable(8) %result) local_unnamed_addr #3 align 2 {
entry:
  %0 = load ptr, ptr %patterns, align 8
  %cmp.i.i = icmp eq ptr %0, null
  br i1 %cmp.i.i, label %for.end, label %_ZNK6vectorIP3appLb0EjE3endEv.exit

_ZNK6vectorIP3appLb0EjE3endEv.exit:               ; preds = %entry
  %arrayidx.i.i = getelementptr inbounds i8, ptr %0, i64 -4
  %1 = load i32, ptr %arrayidx.i.i, align 4
  %2 = zext i32 %1 to i64
  %add.ptr.i = getelementptr inbounds ptr, ptr %0, i64 %2
  %cmp.not5 = icmp eq i32 %1, 0
  br i1 %cmp.not5, label %for.end, label %for.body.lr.ph

for.body.lr.ph:                                   ; preds = %_ZNK6vectorIP3appLb0EjE3endEv.exit
  %m_contains_subpattern.i = getelementptr inbounds i8, ptr %this, i64 256
  br label %for.body

for.body:                                         ; preds = %for.body.lr.ph, %for.inc
  %__begin1.06 = phi ptr [ %0, %for.body.lr.ph ], [ %incdec.ptr, %for.inc ]
  %3 = load ptr, ptr %__begin1.06, align 8
  %call.i = tail call noundef zeroext i1 @_ZN21pattern_inference_cfg19contains_subpatternclEP4expr(ptr noundef nonnull align 8 dereferenceable(32) %m_contains_subpattern.i, ptr noundef %3)
  br i1 %call.i, label %for.inc, label %if.then

if.then:                                          ; preds = %for.body
  %4 = load ptr, ptr %result, align 8
  %cmp.i = icmp eq ptr %4, null
  br i1 %cmp.i, label %if.then.i, label %lor.lhs.false.i

lor.lhs.false.i:                                  ; preds = %if.then
  %arrayidx.i = getelementptr inbounds i8, ptr %4, i64 -4
  %5 = load i32, ptr %arrayidx.i, align 4
  %arrayidx4.i = getelementptr inbounds i8, ptr %4, i64 -8
  %6 = load i32, ptr %arrayidx4.i, align 4
  %cmp5.i = icmp eq i32 %5, %6
  br i1 %cmp5.i, label %if.then.i, label %_ZN6vectorIP3appLb0EjE9push_backERKS1_.exit

if.then.i:                                        ; preds = %lor.lhs.false.i, %if.then
  tail call void @_ZN6vectorIP3appLb0EjE13expand_vectorEv(ptr noundef nonnull align 8 dereferenceable(8) %result)
  %.pre.i = load ptr, ptr %result, align 8
  %arrayidx8.phi.trans.insert.i = getelementptr inbounds i8, ptr %.pre.i, i64 -4
  %.pre1.i = load i32, ptr %arrayidx8.phi.trans.insert.i, align 4
  br label %_ZN6vectorIP3appLb0EjE9push_backERKS1_.exit

_ZN6vectorIP3appLb0EjE9push_backERKS1_.exit:      ; preds = %lor.lhs.false.i, %if.then.i
  %7 = phi i32 [ %.pre1.i, %if.then.i ], [ %5, %lor.lhs.false.i ]
  %8 = phi ptr [ %.pre.i, %if.then.i ], [ %4, %lor.lhs.false.i ]
  %idx.ext.i = zext i32 %7 to i64
  %add.ptr.i4 = getelementptr inbounds ptr, ptr %8, i64 %idx.ext.i
  store ptr %3, ptr %add.ptr.i4, align 8
  %9 = load ptr, ptr %result, align 8
  %arrayidx10.i = getelementptr inbounds i8, ptr %9, i64 -4
  %10 = load i32, ptr %arrayidx10.i, align 4
  %inc.i = add i32 %10, 1
  store i32 %inc.i, ptr %arrayidx10.i, align 4
  br label %for.inc

for.inc:                                          ; preds = %for.body, %_ZN6vectorIP3appLb0EjE9push_backERKS1_.exit
  %incdec.ptr = getelementptr inbounds i8, ptr %__begin1.06, i64 8
  %cmp.not = icmp eq ptr %incdec.ptr, %add.ptr.i
  br i1 %cmp.not, label %for.end, label %for.body

for.end:                                          ; preds = %for.inc, %entry, %_ZNK6vectorIP3appLb0EjE3endEv.exit
  ret void
}